target datalayout = "e-m:e-p270:32:32-p271:32:32-p272:64:64-i64:64-i128:128-f80:128-n8:16:32:64-S128"
target triple = "x86_64-pc-linux-gnu"

%"struct.cv::detail::CameraParams" = type { double, double, double, double, %"class.cv::Mat", %"class.cv::Mat" }
%"class.cv::Mat" = type { i32, i32, i32, i32, ptr, ptr, ptr, ptr, ptr, ptr, %"struct.cv::MatSize", %"struct.cv::MatStep" }
%"struct.cv::MatSize" = type { ptr }
%"struct.cv::MatStep" = type { ptr, [2 x i64] }
%"class.cv::detail::Estimator" = type { ptr }
%"class.cv::Size_" = type { i32, i32 }
%"struct.std::_Vector_base.11" = type { %"struct.std::_Vector_base<cv::detail::CameraParams, std::allocator<cv::detail::CameraParams>>::_Vector_impl" }
%"struct.std::_Vector_base<cv::detail::CameraParams, std::allocator<cv::detail::CameraParams>>::_Vector_impl" = type { %"struct.std::_Vector_base<cv::detail::CameraParams, std::allocator<cv::detail::CameraParams>>::_Vector_impl_data" }
%"struct.std::_Vector_base<cv::detail::CameraParams, std::allocator<cv::detail::CameraParams>>::_Vector_impl_data" = type { ptr, ptr, ptr }
%"class.cv::detail::BundleAdjusterBase" = type { %"class.cv::detail::Estimator", %"class.cv::Mat", i32, i32, i32, i32, ptr, ptr, double, %"class.cv::TermCriteria", %"class.cv::Mat", %"class.std::vector.30" }
%"class.cv::TermCriteria" = type { i32, i32, double }
%"class.std::vector.30" = type { %"struct.std::_Vector_base.31" }
%"struct.std::_Vector_base.31" = type { %"struct.std::_Vector_base<std::pair<int, int>, std::allocator<std::pair<int, int>>>::_Vector_impl" }
%"struct.std::_Vector_base<std::pair<int, int>, std::allocator<std::pair<int, int>>>::_Vector_impl" = type { %"struct.std::_Vector_base<std::pair<int, int>, std::allocator<std::pair<int, int>>>::_Vector_impl_data" }
%"struct.std::_Vector_base<std::pair<int, int>, std::allocator<std::pair<int, int>>>::_Vector_impl_data" = type { ptr, ptr, ptr }
%"class.cv::_InputArray" = type { i32, ptr, %"class.cv::Size_" }
%"class.cv::_OutputArray" = type { %"class.cv::_InputArray" }

; Function Attrs: inlinehint mustprogress nounwind uwtable
define linkonce_odr hidden void @_ZN2cv5Size_IiEC2Ev(ptr noundef nonnull align 4 dereferenceable(8) %0) unnamed_addr #7 comdat align 2 {
  %2 = alloca ptr, align 8
  store ptr %0, ptr %2, align 8, !tbaa !409
  %3 = load ptr, ptr %2, align 8
  %4 = getelementptr inbounds nuw %"class.cv::Size_", ptr %3, i32 0, i32 0
  store i32 0, ptr %4, align 4, !tbaa !411
  %5 = getelementptr inbounds nuw %"class.cv::Size_", ptr %3, i32 0, i32 1
  store i32 0, ptr %5, align 4, !tbaa !412
  ret void
}

; Function Attrs: inlinehint mustprogress nounwind uwtable
define linkonce_odr hidden void @_ZN2cv11_InputArray4initEiPKv(ptr noundef nonnull align 8 dereferenceable(24) %0, i32 noundef %1, ptr noundef %2) #7 comdat align 2 {
  %4 = alloca ptr, align 8
  %5 = alloca i32, align 4
  %6 = alloca ptr, align 8
  store ptr %0, ptr %4, align 8, !tbaa !194
  store i32 %1, ptr %5, align 4, !tbaa !14
  store ptr %2, ptr %6, align 8, !tbaa !403
  %7 = load ptr, ptr %4, align 8
  %8 = load i32, ptr %5, align 4, !tbaa !14
  %9 = getelementptr inbounds nuw %"class.cv::_InputArray", ptr %7, i32 0, i32 0
  store i32 %8, ptr %9, align 8, !tbaa !413
  %10 = load ptr, ptr %6, align 8, !tbaa !403
  %11 = getelementptr inbounds nuw %"class.cv::_InputArray", ptr %7, i32 0, i32 1
  store ptr %10, ptr %11, align 8, !tbaa !415
  ret void
}

; Function Attrs: inlinehint mustprogress uwtable
define linkonce_odr hidden void @_ZN2cv11_InputArrayC2Ev(ptr noundef nonnull align 8 dereferenceable(24) %0) unnamed_addr #9 comdat align 2 {
  %2 = alloca ptr, align 8
  store ptr %0, ptr %2, align 8, !tbaa !194
  %3 = load ptr, ptr %2, align 8
  %4 = getelementptr inbounds nuw %"class.cv::_InputArray", ptr %3, i32 0, i32 2
  call void @_ZN2cv5Size_IiEC2Ev(ptr noundef nonnull align 4 dereferenceable(8) %4)
  call void @_ZN2cv11_InputArray4initEiPKv(ptr noundef nonnull align 8 dereferenceable(24) %3, i32 noundef 0, ptr noundef null)
  ret void
}

; Function Attrs: inlinehint mustprogress nounwind uwtable
define linkonce_odr hidden void @_ZN2cv11_InputArrayD2Ev(ptr noundef nonnull align 8 dereferenceable(24) %0) unnamed_addr #7 comdat align 2 {
  %2 = alloca ptr, align 8
  store ptr %0, ptr %2, align 8, !tbaa !194
  ret void
}

; Function Attrs: inlinehint mustprogress uwtable
define linkonce_odr hidden void @_ZN2cv12_OutputArrayC2ERNS_3MatE(ptr noundef nonnull align 8 dereferenceable(24) %0, ptr noundef nonnull align 8 dereferenceable(96) %1) unnamed_addr #9 comdat align 2 {
  %3 = alloca ptr, align 8
  %4 = alloca ptr, align 8
  store ptr %0, ptr %3, align 8, !tbaa !197
  store ptr %1, ptr %4, align 8, !tbaa !165
  %5 = load ptr, ptr %3, align 8
  call void @_ZN2cv11_InputArrayC2Ev(ptr noundef nonnull align 8 dereferenceable(24) %5)
  %6 = load ptr, ptr %4, align 8, !tbaa !165
  call void @_ZN2cv11_InputArray4initEiPKv(ptr noundef nonnull align 8 dereferenceable(24) %5, i32 noundef 33619968, ptr noundef %6)
  ret void
}

; Function Attrs: mustprogress nounwind uwtable
define linkonce_odr hidden noundef nonnull align 8 dereferenceable(224) ptr @_ZNSt6vectorIN2cv6detail12CameraParamsESaIS2_EEixEm(ptr noundef nonnull align 8 dereferenceable(24) %0, i64 noundef %1) #6 comdat align 2 {
  %3 = alloca ptr, align 8
  %4 = alloca i64, align 8
  store ptr %0, ptr %3, align 8, !tbaa !12
  store i64 %1, ptr %4, align 8, !tbaa !58
  %5 = load ptr, ptr %3, align 8
  %6 = getelementptr inbounds nuw %"struct.std::_Vector_base.11", ptr %5, i32 0, i32 0
  %7 = getelementptr inbounds nuw %"struct.std::_Vector_base<cv::detail::CameraParams, std::allocator<cv::detail::CameraParams>>::_Vector_impl_data", ptr %6, i32 0, i32 0
  %8 = load ptr, ptr %7, align 8, !tbaa !64
  %9 = load i64, ptr %4, align 8, !tbaa !58
  %10 = getelementptr inbounds nuw %"struct.cv::detail::CameraParams", ptr %8, i64 %9
  ret ptr %10
}

; Function Attrs: inlinehint mustprogress nounwind uwtable
define linkonce_odr hidden noundef ptr @_ZNK2cv3Mat3ptrIdEEPKT_i(ptr noundef nonnull align 8 dereferenceable(96) %0, i32 noundef %1) #7 comdat align 2 {
  %3 = alloca ptr, align 8
  %4 = alloca i32, align 4
  store ptr %0, ptr %3, align 8, !tbaa !165
  store i32 %1, ptr %4, align 4, !tbaa !14
  %5 = load ptr, ptr %3, align 8
  %6 = getelementptr inbounds nuw %"class.cv::Mat", ptr %5, i32 0, i32 4
  %7 = load ptr, ptr %6, align 8, !tbaa !170
  %8 = getelementptr inbounds nuw %"class.cv::Mat", ptr %5, i32 0, i32 11
  %9 = getelementptr inbounds nuw %"struct.cv::MatStep", ptr %8, i32 0, i32 0
  %10 = load ptr, ptr %9, align 8, !tbaa !179
  %11 = getelementptr inbounds i64, ptr %10, i64 0
  %12 = load i64, ptr %11, align 8, !tbaa !58
  %13 = load i32, ptr %4, align 4, !tbaa !14
  %14 = sext i32 %13 to i64
  %15 = mul i64 %12, %14
  %16 = getelementptr inbounds nuw i8, ptr %7, i64 %15
  ret ptr %16
}

; Function Attrs: mustprogress uwtable
define void @_ZNK2cv6detail27BundleAdjusterAffinePartial25obtainRefinedCameraParamsERSt6vectorINS0_12CameraParamsESaIS3_EE(ptr noundef nonnull align 8 dereferenceable(472) %0, ptr noundef nonnull align 8 dereferenceable(24) %1) unnamed_addr #4 align 2 personality ptr @__gxx_personality_v0 {
  %3 = alloca ptr, align 8
  %4 = alloca ptr, align 8
  %5 = alloca i64, align 8
  %6 = alloca ptr, align 8
  %7 = alloca [9 x double], align 16
  %8 = alloca %"class.cv::Mat", align 8
  %9 = alloca %"class.cv::_OutputArray", align 8
  %10 = alloca ptr, align 8
  %11 = alloca i32, align 4
  store ptr %0, ptr %3, align 8, !tbaa !250
  store ptr %1, ptr %4, align 8, !tbaa !12
  %12 = load ptr, ptr %3, align 8
  call void @llvm.lifetime.start.p0(i64 8, ptr %5) #3
  store i64 0, ptr %5, align 8, !tbaa !58
  br label %13

13:                                               ; preds = %60, %2
  %14 = load i64, ptr %5, align 8, !tbaa !58
  %15 = getelementptr inbounds nuw %"class.cv::detail::BundleAdjusterBase", ptr %12, i32 0, i32 2
  %16 = load i32, ptr %15, align 8, !tbaa !123
  %17 = sext i32 %16 to i64
  %18 = icmp ult i64 %14, %17
  br i1 %18, label %20, label %19

19:                                               ; preds = %13
  call void @llvm.lifetime.end.p0(i64 8, ptr %5) #3
  br label %72

20:                                               ; preds = %13
  call void @llvm.lifetime.start.p0(i64 8, ptr %6) #3
  %21 = getelementptr inbounds nuw %"class.cv::detail::BundleAdjusterBase", ptr %12, i32 0, i32 10
  %22 = call noundef ptr @_ZNK2cv3Mat3ptrIdEEPKT_i(ptr noundef nonnull align 8 dereferenceable(96) %21, i32 noundef 0)
  %23 = load i64, ptr %5, align 8, !tbaa !58
  %24 = mul i64 %23, 4
  %25 = getelementptr inbounds nuw double, ptr %22, i64 %24
  store ptr %25, ptr %6, align 8, !tbaa !196
  call void @llvm.lifetime.start.p0(i64 72, ptr %7) #3
  %26 = load ptr, ptr %6, align 8, !tbaa !196
  %27 = getelementptr inbounds double, ptr %26, i64 0
  %28 = load double, ptr %27, align 8, !tbaa !22
  store double %28, ptr %7, align 8, !tbaa !22
  %29 = getelementptr inbounds double, ptr %7, i64 1
  %30 = load ptr, ptr %6, align 8, !tbaa !196
  %31 = getelementptr inbounds double, ptr %30, i64 1
  %32 = load double, ptr %31, align 8, !tbaa !22
  %33 = fneg double %32
  store double %33, ptr %29, align 8, !tbaa !22
  %34 = getelementptr inbounds double, ptr %7, i64 2
  %35 = load ptr, ptr %6, align 8, !tbaa !196
  %36 = getelementptr inbounds double, ptr %35, i64 2
  %37 = load double, ptr %36, align 8, !tbaa !22
  store double %37, ptr %34, align 8, !tbaa !22
  %38 = getelementptr inbounds double, ptr %7, i64 3
  %39 = load ptr, ptr %6, align 8, !tbaa !196
  %40 = getelementptr inbounds double, ptr %39, i64 1
  %41 = load double, ptr %40, align 8, !tbaa !22
  store double %41, ptr %38, align 8, !tbaa !22
  %42 = getelementptr inbounds double, ptr %7, i64 4
  %43 = load ptr, ptr %6, align 8, !tbaa !196
  %44 = getelementptr inbounds double, ptr %43, i64 0
  %45 = load double, ptr %44, align 8, !tbaa !22
  store double %45, ptr %42, align 8, !tbaa !22
  %46 = getelementptr inbounds double, ptr %7, i64 5
  %47 = load ptr, ptr %6, align 8, !tbaa !196
  %48 = getelementptr inbounds double, ptr %47, i64 3
  %49 = load double, ptr %48, align 8, !tbaa !22
  store double %49, ptr %46, align 8, !tbaa !22
  %50 = getelementptr inbounds double, ptr %7, i64 6
  store double 0.000000e+00, ptr %50, align 8, !tbaa !22
  %51 = getelementptr inbounds double, ptr %7, i64 7
  store double 0.000000e+00, ptr %51, align 8, !tbaa !22
  %52 = getelementptr inbounds double, ptr %7, i64 8
  store double 1.000000e+00, ptr %52, align 8, !tbaa !22
  call void @llvm.lifetime.start.p0(i64 96, ptr %8) #3
  %53 = getelementptr inbounds [9 x double], ptr %7, i64 0, i64 0
  call void @_ZN2cv3MatC1EiiiPvm(ptr noundef nonnull align 8 dereferenceable(96) %8, i32 noundef 3, i32 noundef 3, i32 noundef 6, ptr noundef %53, i64 noundef 0)
  call void @llvm.lifetime.start.p0(i64 24, ptr %9) #3
  %54 = load ptr, ptr %4, align 8, !tbaa !12
  %55 = load i64, ptr %5, align 8, !tbaa !58
  %56 = call noundef nonnull align 8 dereferenceable(224) ptr @_ZNSt6vectorIN2cv6detail12CameraParamsESaIS2_EEixEm(ptr noundef nonnull align 8 dereferenceable(24) %54, i64 noundef %55) #3
  %57 = getelementptr inbounds nuw %"struct.cv::detail::CameraParams", ptr %56, i32 0, i32 4
  invoke void @_ZN2cv12_OutputArrayC2ERNS_3MatE(ptr noundef nonnull align 8 dereferenceable(24) %9, ptr noundef nonnull align 8 dereferenceable(96) %57)
          to label %58 unwind label %63

58:                                               ; preds = %20
  invoke void @_ZNK2cv3Mat9convertToERKNS_12_OutputArrayEidd(ptr noundef nonnull align 8 dereferenceable(96) %8, ptr noundef nonnull align 8 dereferenceable(24) %9, i32 noundef 5, double noundef 1.000000e+00, double noundef 0.000000e+00)
          to label %59 unwind label %67

59:                                               ; preds = %58
  call void @_ZN2cv11_InputArrayD2Ev(ptr noundef nonnull align 8 dereferenceable(24) %9) #3
  call void @llvm.lifetime.end.p0(i64 24, ptr %9) #3
  call void @_ZN2cv3MatD1Ev(ptr noundef nonnull align 8 dereferenceable(96) %8) #3
  call void @llvm.lifetime.end.p0(i64 96, ptr %8) #3
  call void @llvm.lifetime.end.p0(i64 72, ptr %7) #3
  call void @llvm.lifetime.end.p0(i64 8, ptr %6) #3
  br label %60

60:                                               ; preds = %59
  %61 = load i64, ptr %5, align 8, !tbaa !58
  %62 = add i64 %61, 1
  store i64 %62, ptr %5, align 8, !tbaa !58
  br label %13, !llvm.loop !253

63:                                               ; preds = %20
  %64 = landingpad { ptr, i32 }
          cleanup
  %65 = extractvalue { ptr, i32 } %64, 0
  store ptr %65, ptr %10, align 8
  %66 = extractvalue { ptr, i32 } %64, 1
  store i32 %66, ptr %11, align 4
  br label %71

67:                                               ; preds = %58
  %68 = landingpad { ptr, i32 }
          cleanup
  %69 = extractvalue { ptr, i32 } %68, 0
  store ptr %69, ptr %10, align 8
  %70 = extractvalue { ptr, i32 } %68, 1
  store i32 %70, ptr %11, align 4
  call void @_ZN2cv11_InputArrayD2Ev(ptr noundef nonnull align 8 dereferenceable(24) %9) #3
  br label %71

71:                                               ; preds = %67, %63
  call void @llvm.lifetime.end.p0(i64 24, ptr %9) #3
  call void @_ZN2cv3MatD1Ev(ptr noundef nonnull align 8 dereferenceable(96) %8) #3
  call void @llvm.lifetime.end.p0(i64 96, ptr %8) #3
  call void @llvm.lifetime.end.p0(i64 72, ptr %7) #3
  call void @llvm.lifetime.end.p0(i64 8, ptr %6) #3
  call void @llvm.lifetime.end.p0(i64 8, ptr %5) #3
  br label %73

72:                                               ; preds = %19
  ret void

73:                                               ; preds = %71
  %74 = load ptr, ptr %10, align 8
  %75 = load i32, ptr %11, align 4
  %76 = insertvalue { ptr, i32 } poison, ptr %74, 0
  %77 = insertvalue { ptr, i32 } %76, i32 %75, 1
  resume { ptr, i32 } %77
}