; Function Attrs: mustprogress uwtable
define void @_ZNK2cv6detail27BundleAdjusterAffinePartial25obtainRefinedCameraParamsERSt6vectorINS0_12CameraParamsESaIS3_EE(ptr noundef nonnull readonly align 8 captures(none) dereferenceable(472) %0, ptr noundef nonnull readonly align 8 captures(none) dereferenceable(24) %1) unnamed_addr #3 align 2 personality ptr @__gxx_personality_v0 {
  %3 = alloca [9 x double], align 16
  %4 = alloca %"class.cv::Mat", align 8
  %5 = alloca %"class.cv::_OutputArray", align 8
  %6 = getelementptr inbounds nuw i8, ptr %0, i64 104
  %7 = load i32, ptr %6, align 8, !tbaa !166
  %.not = icmp eq i32 %7, 0
  br i1 %.not, label %._crit_edge, label %.lr.ph

.lr.ph:                                           ; preds = %2
  %8 = getelementptr inbounds nuw i8, ptr %0, i64 176
  %9 = getelementptr inbounds nuw i8, ptr %3, i64 8
  %10 = getelementptr inbounds nuw i8, ptr %3, i64 16
  %11 = getelementptr inbounds nuw i8, ptr %3, i64 24
  %12 = getelementptr inbounds nuw i8, ptr %3, i64 32
  %13 = getelementptr inbounds nuw i8, ptr %3, i64 40
  %14 = getelementptr inbounds nuw i8, ptr %3, i64 48
  %15 = getelementptr inbounds nuw i8, ptr %3, i64 64
  %16 = getelementptr inbounds nuw i8, ptr %5, i64 8
  %17 = getelementptr inbounds nuw i8, ptr %5, i64 16
  br label %18

._crit_edge:                                      ; preds = %33, %2
  ret void

18:                                               ; preds = %.lr.ph, %33
  %.01416 = phi i64 [ 0, %.lr.ph ], [ %34, %33 ]
  %19 = load ptr, ptr %8, align 8, !tbaa !109
  %.idx = shl i64 %.01416, 5
  %20 = getelementptr inbounds nuw i8, ptr %19, i64 %.idx
  call void @llvm.lifetime.start.p0(i64 72, ptr nonnull %3) #24
  %21 = load double, ptr %20, align 8, !tbaa !22
  store double %21, ptr %3, align 16, !tbaa !22
  %22 = getelementptr inbounds nuw i8, ptr %20, i64 8
  %23 = load double, ptr %22, align 8, !tbaa !22
  %24 = fneg double %23
  store double %24, ptr %9, align 8, !tbaa !22
  %25 = getelementptr inbounds nuw i8, ptr %20, i64 16
  %26 = load double, ptr %25, align 8, !tbaa !22
  store double %26, ptr %10, align 16, !tbaa !22
  %27 = load double, ptr %22, align 8, !tbaa !22
  store double %27, ptr %11, align 8, !tbaa !22
  %28 = load double, ptr %20, align 8, !tbaa !22
  store double %28, ptr %12, align 16, !tbaa !22
  %29 = getelementptr inbounds nuw i8, ptr %20, i64 24
  %30 = load double, ptr %29, align 8, !tbaa !22
  store double %30, ptr %13, align 8, !tbaa !22
  call void @llvm.memset.p0.i64(ptr noundef nonnull align 16 dereferenceable(16) %14, i8 0, i64 16, i1 false)
  store double 1.000000e+00, ptr %15, align 16, !tbaa !22
  call void @llvm.lifetime.start.p0(i64 96, ptr nonnull %4) #24
  call void @_ZN2cv3MatC1EiiiPvm(ptr noundef nonnull align 8 dereferenceable(96) %4, i32 noundef 3, i32 noundef 3, i32 noundef 6, ptr noundef nonnull %3, i64 noundef 0)
  call void @llvm.lifetime.start.p0(i64 24, ptr nonnull %5) #24
  %31 = load ptr, ptr %1, align 8, !tbaa !16
  %32 = getelementptr inbounds nuw %"struct.cv::detail::CameraParams", ptr %31, i64 %.01416, i32 4
  store i64 0, ptr %17, align 8
  store i32 33619968, ptr %5, align 8, !tbaa !106
  store ptr %32, ptr %16, align 8, !tbaa !108
  invoke void @_ZNK2cv3Mat9convertToERKNS_12_OutputArrayEidd(ptr noundef nonnull align 8 dereferenceable(96) %4, ptr noundef nonnull align 8 dereferenceable(24) %5, i32 noundef 5, double noundef 1.000000e+00, double noundef 0.000000e+00)
          to label %33 unwind label %38

33:                                               ; preds = %18
  call void @llvm.lifetime.end.p0(i64 24, ptr nonnull %5) #24
  call void @_ZN2cv3MatD1Ev(ptr noundef nonnull align 8 dereferenceable(96) %4) #24
  call void @llvm.lifetime.end.p0(i64 96, ptr nonnull %4) #24
  call void @llvm.lifetime.end.p0(i64 72, ptr nonnull %3) #24
  %34 = add nuw i64 %.01416, 1
  %35 = load i32, ptr %6, align 8, !tbaa !166
  %36 = sext i32 %35 to i64
  %37 = icmp ult i64 %34, %36
  br i1 %37, label %18, label %._crit_edge, !llvm.loop !324

38:                                               ; preds = %18
  %39 = landingpad { ptr, i32 }
          cleanup
  call void @llvm.lifetime.end.p0(i64 24, ptr nonnull %5) #24
  call void @_ZN2cv3MatD1Ev(ptr noundef nonnull align 8 dereferenceable(96) %4) #24
  call void @llvm.lifetime.end.p0(i64 96, ptr nonnull %4) #24
  call void @llvm.lifetime.end.p0(i64 72, ptr nonnull %3) #24
  resume { ptr, i32 } %39
}